target datalayout = "e-m:e-p270:32:32-p271:32:32-p272:64:64-i64:64-i128:128-f80:128-n8:16:32:64-S128"
target triple = "x86_64-pc-linux-gnu"

%"class.Dependencies::DepValue" = type { i32 }

; Function Attrs: mustprogress nounwind uwtable
define linkonce_odr hidden noundef i32 @_ZNK12Dependencies8DepValue8sort_keyEv(ptr noundef nonnull align 4 dereferenceable(4) %0) #1 comdat align 2 {
  %2 = alloca ptr, align 8
  store ptr %0, ptr %2, align 8
  %3 = load ptr, ptr %2, align 8
  %4 = getelementptr inbounds %"class.Dependencies::DepValue", ptr %3, i32 0, i32 0
  %5 = load i32, ptr %4, align 4
  %6 = sub nsw i32 0, %5
  ret i32 %6
}

; Function Attrs: mustprogress nounwind uwtable
define internal noundef i32 @_ZL14sort_dep_valuePN12Dependencies8DepValueES1_i(ptr noundef %0, ptr noundef %1, i32 noundef %2) #1 {
  %4 = alloca i32, align 4
  %5 = alloca ptr, align 8
  %6 = alloca ptr, align 8
  %7 = alloca i32, align 4
  %8 = alloca i32, align 4
  %9 = alloca i32, align 4
  store ptr %0, ptr %5, align 8
  store ptr %1, ptr %6, align 8
  store i32 %2, ptr %7, align 4
  store i32 0, ptr %8, align 4
  br label %10

10:                                               ; preds = %31, %3
  %11 = load i32, ptr %8, align 4
  %12 = load i32, ptr %7, align 4
  %13 = icmp slt i32 %11, %12
  br i1 %13, label %14, label %34

14:                                               ; preds = %10
  %15 = load ptr, ptr %5, align 8
  %16 = load i32, ptr %8, align 4
  %17 = sext i32 %16 to i64
  %18 = getelementptr inbounds %"class.Dependencies::DepValue", ptr %15, i64 %17
  %19 = call noundef i32 @_ZNK12Dependencies8DepValue8sort_keyEv(ptr noundef nonnull align 4 dereferenceable(4) %18)
  %20 = load ptr, ptr %6, align 8
  %21 = load i32, ptr %8, align 4
  %22 = sext i32 %21 to i64
  %23 = getelementptr inbounds %"class.Dependencies::DepValue", ptr %20, i64 %22
  %24 = call noundef i32 @_ZNK12Dependencies8DepValue8sort_keyEv(ptr noundef nonnull align 4 dereferenceable(4) %23)
  %25 = sub nsw i32 %19, %24
  store i32 %25, ptr %9, align 4
  %26 = load i32, ptr %9, align 4
  %27 = icmp ne i32 %26, 0
  br i1 %27, label %28, label %30

28:                                               ; preds = %14
  %29 = load i32, ptr %9, align 4
  store i32 %29, ptr %4, align 4
  br label %35

30:                                               ; preds = %14
  br label %31

31:                                               ; preds = %30
  %32 = load i32, ptr %8, align 4
  %33 = add nsw i32 %32, 1
  store i32 %33, ptr %8, align 4
  br label %10, !llvm.loop !55

34:                                               ; preds = %10
  store i32 0, ptr %4, align 4
  br label %35

35:                                               ; preds = %34, %28
  %36 = load i32, ptr %4, align 4
  ret i32 %36
}

; Function Attrs: mustprogress nounwind uwtable
define internal noundef i32 @_ZL20sort_dep_value_arg_3PN12Dependencies8DepValueES1_(ptr noundef %0, ptr noundef %1) #1 {
  %3 = alloca ptr, align 8
  %4 = alloca ptr, align 8
  store ptr %0, ptr %3, align 8
  store ptr %1, ptr %4, align 8
  %5 = load ptr, ptr %3, align 8
  %6 = load ptr, ptr %4, align 8
  %7 = call noundef i32 @_ZL14sort_dep_valuePN12Dependencies8DepValueES1_i(ptr noundef %5, ptr noundef %6, i32 noundef 3)
  ret i32 %7
}