; Function Attrs: mustprogress nofree norecurse nosync nounwind willreturn memory(argmem: read) uwtable
define internal noundef i32 @_ZL20sort_dep_value_arg_3PN12Dependencies8DepValueES1_(ptr nocapture noundef readonly %0, ptr nocapture noundef readonly %1) #5 {
  br label %.lr.ph.i

.lr.ph.i:                                         ; preds = %.lr.ph.i, %2
  %indvars.iv.i = phi i64 [ 0, %2 ], [ %indvars.iv.next.i, %.lr.ph.i ]
  %3 = getelementptr inbounds %"class.Dependencies::DepValue", ptr %0, i64 %indvars.iv.i
  %4 = load i32, ptr %3, align 4
  %5 = getelementptr inbounds %"class.Dependencies::DepValue", ptr %1, i64 %indvars.iv.i
  %6 = load i32, ptr %5, align 4
  %.not.i = icmp ne i32 %6, %4
  %indvars.iv.next.i = add nuw nsw i64 %indvars.iv.i, 1
  %exitcond.not.i = icmp eq i64 %indvars.iv.next.i, 3
  %or.cond = select i1 %.not.i, i1 true, i1 %exitcond.not.i
  br i1 %or.cond, label %_ZL14sort_dep_valuePN12Dependencies8DepValueES1_i.exit, label %.lr.ph.i, !llvm.loop !17

_ZL14sort_dep_valuePN12Dependencies8DepValueES1_i.exit: ; preds = %.lr.ph.i
  %7 = sub i32 %6, %4
  ret i32 %7
}